; Function Attrs: mustprogress nounwind
define internal noundef ptr @_ZN3tbb6detail2d19start_forINS1_13blocked_rangeImEENS0_2d225parallel_for_body_wrapperIN9__gnu_cxx17__normal_iteratorIPPN4mold3elf10ObjectFileINSA_4I386EEESt6vectorISE_SaISE_EEEEZNSA_L26r_claim_unresolved_symbolsISC_EEvRNSA_7ContextIT_EEEUlSE_E_SE_EEKNS1_16auto_partitionerEE6cancelERNS1_14execution_dataE(ptr noundef nonnull align 64 dereferenceable(144) %this, ptr noundef nonnull align 8 dereferenceable(12) %ed) unnamed_addr #4 align 2 {
entry:
  %my_parent.i = getelementptr inbounds i8, ptr %this, i64 112
  %0 = load ptr, ptr %my_parent.i, align 16
  %my_allocator.i = getelementptr inbounds i8, ptr %this, i64 136
  %1 = load i64, ptr %my_allocator.i, align 8
  %vtable.i = load ptr, ptr %this, align 64
  %2 = load ptr, ptr %vtable.i, align 8
  tail call void %2(ptr noundef nonnull align 64 dereferenceable(144) %this) #10
  %m_ref_count11.i.i = getelementptr inbounds i8, ptr %0, i64 8
  %3 = atomicrmw sub ptr %m_ref_count11.i.i, i32 1 seq_cst, align 4
  %4 = add i32 %3, -1
  %cmp12.i.i = icmp sgt i32 %4, 0
  br i1 %cmp12.i.i, label %_ZN3tbb6detail2d19start_forINS1_13blocked_rangeImEENS0_2d225parallel_for_body_wrapperIN9__gnu_cxx17__normal_iteratorIPPN4mold3elf10ObjectFileINSA_4I386EEESt6vectorISE_SaISE_EEEEZNSA_L26r_claim_unresolved_symbolsISC_EEvRNSA_7ContextIT_EEEUlSE_E_SE_EEKNS1_16auto_partitionerEE8finalizeERKNS1_14execution_dataE.exit, label %if.end.i.i

if.end.i.i:                                       ; preds = %entry, %if.end2.i.i
  %n.addr.013.i.i = phi ptr [ %5, %if.end2.i.i ], [ %0, %entry ]
  %5 = load ptr, ptr %n.addr.013.i.i, align 8
  %tobool.not.i.i = icmp eq ptr %5, null
  br i1 %tobool.not.i.i, label %for.end.i.i, label %if.end2.i.i

if.end2.i.i:                                      ; preds = %if.end.i.i
  %m_allocator.i.i = getelementptr inbounds i8, ptr %n.addr.013.i.i, i64 16
  %6 = load i64, ptr %m_allocator.i.i, align 8
  %7 = inttoptr i64 %6 to ptr
  tail call void @_ZN3tbb6detail2r110deallocateERNS0_2d117small_object_poolEPvmRKNS2_14execution_dataE(ptr noundef nonnull align 1 dereferenceable(1) %7, ptr noundef nonnull %n.addr.013.i.i, i64 noundef 32, ptr noundef nonnull align 8 dereferenceable(12) %ed) #10
  %m_ref_count.i.i = getelementptr inbounds i8, ptr %5, i64 8
  %8 = atomicrmw sub ptr %m_ref_count.i.i, i32 1 seq_cst, align 4
  %9 = add i32 %8, -1
  %cmp.i.i = icmp sgt i32 %9, 0
  br i1 %cmp.i.i, label %_ZN3tbb6detail2d19start_forINS1_13blocked_rangeImEENS0_2d225parallel_for_body_wrapperIN9__gnu_cxx17__normal_iteratorIPPN4mold3elf10ObjectFileINSA_4I386EEESt6vectorISE_SaISE_EEEEZNSA_L26r_claim_unresolved_symbolsISC_EEvRNSA_7ContextIT_EEEUlSE_E_SE_EEKNS1_16auto_partitionerEE8finalizeERKNS1_14execution_dataE.exit, label %if.end.i.i, !llvm.loop !79

for.end.i.i:                                      ; preds = %if.end.i.i
  %m_ref_count.i.i.i.i = getelementptr inbounds i8, ptr %n.addr.013.i.i, i64 24
  %10 = atomicrmw add ptr %m_ref_count.i.i.i.i, i64 -1 seq_cst, align 8
  %tobool.not.i.i.i.i = icmp eq i64 %10, 1
  br i1 %tobool.not.i.i.i.i, label %if.then.i.i.i.i, label %_ZN3tbb6detail2d19start_forINS1_13blocked_rangeImEENS0_2d225parallel_for_body_wrapperIN9__gnu_cxx17__normal_iteratorIPPN4mold3elf10ObjectFileINSA_4I386EEESt6vectorISE_SaISE_EEEEZNSA_L26r_claim_unresolved_symbolsISC_EEvRNSA_7ContextIT_EEEUlSE_E_SE_EEKNS1_16auto_partitionerEE8finalizeERKNS1_14execution_dataE.exit

if.then.i.i.i.i:                                  ; preds = %for.end.i.i
  %m_wait.i.i = getelementptr inbounds i8, ptr %n.addr.013.i.i, i64 16
  %11 = ptrtoint ptr %m_wait.i.i to i64
  tail call void @_ZN3tbb6detail2r114notify_waitersEm(i64 noundef %11) #10
  br label %_ZN3tbb6detail2d19start_forINS1_13blocked_rangeImEENS0_2d225parallel_for_body_wrapperIN9__gnu_cxx17__normal_iteratorIPPN4mold3elf10ObjectFileINSA_4I386EEESt6vectorISE_SaISE_EEEEZNSA_L26r_claim_unresolved_symbolsISC_EEvRNSA_7ContextIT_EEEUlSE_E_SE_EEKNS1_16auto_partitionerEE8finalizeERKNS1_14execution_dataE.exit

_ZN3tbb6detail2d19start_forINS1_13blocked_rangeImEENS0_2d225parallel_for_body_wrapperIN9__gnu_cxx17__normal_iteratorIPPN4mold3elf10ObjectFileINSA_4I386EEESt6vectorISE_SaISE_EEEEZNSA_L26r_claim_unresolved_symbolsISC_EEvRNSA_7ContextIT_EEEUlSE_E_SE_EEKNS1_16auto_partitionerEE8finalizeERKNS1_14execution_dataE.exit: ; preds = %if.end2.i.i, %entry, %for.end.i.i, %if.then.i.i.i.i
  %12 = inttoptr i64 %1 to ptr
  tail call void @_ZN3tbb6detail2r110deallocateERNS0_2d117small_object_poolEPvmRKNS2_14execution_dataE(ptr noundef nonnull align 1 dereferenceable(1) %12, ptr noundef nonnull %this, i64 noundef 192, ptr noundef nonnull align 8 dereferenceable(12) %ed) #10
  ret ptr null
}